
V003J4M_TasmotaAlarmCam.elf:     file format elf32-littleriscv
V003J4M_TasmotaAlarmCam.elf
architecture: riscv:rv32, flags 0x00000112:
EXEC_P, HAS_SYMS, D_PAGED
start address 0x00000000

Program Header:
    LOAD off    0x00001000 vaddr 0x00000000 paddr 0x00000000 align 2**12
         filesz 0x0000034c memsz 0x0000034c flags r-x
    LOAD off    0x00002000 vaddr 0x20000000 paddr 0x0000034c align 2**12
         filesz 0x00000000 memsz 0x00000008 flags rw-

Sections:
Idx Name          Size      VMA       LMA       File off  Algn
  0 .init         0000009c  00000000  00000000  00001000  2**2
                  CONTENTS, ALLOC, LOAD, READONLY, CODE
  1 .text         000002b0  0000009c  0000009c  0000109c  2**1
                  CONTENTS, ALLOC, LOAD, READONLY, CODE
  2 .fini         00000000  0000034c  0000034c  0000134c  2**0
                  CONTENTS, ALLOC, LOAD, CODE
  3 .dalign       00000000  20000000  20000000  0000134c  2**0
                  CONTENTS
  4 .dlalign      00000000  0000034c  0000034c  0000134c  2**0
                  CONTENTS
  5 .data         00000000  20000000  20000000  0000134c  2**0
                  CONTENTS, ALLOC, LOAD, DATA
  6 .bss          00000008  20000000  0000034c  00002000  2**2
                  ALLOC
  7 .debug_info   000022c0  00000000  00000000  0000134c  2**0
                  CONTENTS, READONLY, DEBUGGING
  8 .debug_abbrev 00000717  00000000  00000000  0000360c  2**0
                  CONTENTS, READONLY, DEBUGGING
  9 .debug_loc    00000127  00000000  00000000  00003d23  2**0
                  CONTENTS, READONLY, DEBUGGING
 10 .debug_aranges 00000110  00000000  00000000  00003e4a  2**0
                  CONTENTS, READONLY, DEBUGGING
 11 .debug_ranges 000000f8  00000000  00000000  00003f5a  2**0
                  CONTENTS, READONLY, DEBUGGING
 12 .debug_line   000016de  00000000  00000000  00004052  2**0
                  CONTENTS, READONLY, DEBUGGING
 13 .debug_str    00000a88  00000000  00000000  00005730  2**0
                  CONTENTS, READONLY, DEBUGGING
 14 .comment      00000033  00000000  00000000  000061b8  2**0
                  CONTENTS, READONLY
 15 .debug_frame  000001f0  00000000  00000000  000061ec  2**2
                  CONTENTS, READONLY, DEBUGGING
SYMBOL TABLE:
00000000 l    d  .init	00000000 .init
0000009c l    d  .text	00000000 .text
0000034c l    d  .fini	00000000 .fini
20000000 l    d  .dalign	00000000 .dalign
0000034c l    d  .dlalign	00000000 .dlalign
20000000 l    d  .data	00000000 .data
20000000 l    d  .bss	00000000 .bss
00000000 l    d  .debug_info	00000000 .debug_info
00000000 l    d  .debug_abbrev	00000000 .debug_abbrev
00000000 l    d  .debug_loc	00000000 .debug_loc
00000000 l    d  .debug_aranges	00000000 .debug_aranges
00000000 l    d  .debug_ranges	00000000 .debug_ranges
00000000 l    d  .debug_line	00000000 .debug_line
00000000 l    d  .debug_str	00000000 .debug_str
00000000 l    d  .comment	00000000 .comment
00000000 l    d  .debug_frame	00000000 .debug_frame
00000000 l    df *ABS*	00000000 system.c
00000000 l    df *ABS*	00000000 millis.c
00000000 l    df *ABS*	00000000 main.c
20000004 l     O .bss	00000001 g_status
000002d4 g     F .text	00000078 reset_handler
20000800 g       .data	00000000 __global_pointer$
00000268  w    F .text	00000002 TIM1_CC_IRQHandler
00000268  w    F .text	00000002 HardFault_Handler
000000b0 g     F .text	00000036 SysTick_Handler
00000268  w    F .text	00000002 PVD_IRQHandler
00000268  w    F .text	00000002 NMI_Handler
20000000 g       .bss	00000000 _sbss
20000000 g     O .bss	00000004 MIL_millis
000000a6 g     F .text	0000000a .hidden __riscv_restore_2
0000029a g     F .text	00000024 SYS_init
00000000 g     F .init	00000004 jump_reset
0000009c g       .init	00000000 _einit
00000268  w    F .text	00000002 SPI1_IRQHandler
0000009c g     F .text	0000000a .hidden __riscv_save_1
000000a6 g     F .text	0000000a .hidden __riscv_restore_0
00000268  w    F .text	00000002 AWU_IRQHandler
00000268  w    F .text	00000002 EXTI7_0_IRQHandler
00000268 g     F .text	00000002 default_handler
00000268  w    F .text	00000002 DMA1_Channel4_IRQHandler
00000268  w    F .text	00000002 ADC1_IRQHandler
20000008 g       .bss	00000000 _ebss
00000268  w    F .text	00000002 DMA1_Channel7_IRQHandler
00000268  w    F .text	00000002 I2C1_EV_IRQHandler
00000268  w    F .text	00000002 DMA1_Channel6_IRQHandler
00000268  w    F .text	00000002 RCC_IRQHandler
00000268  w    F .text	00000002 TIM1_TRG_COM_IRQHandler
00000268  w    F .text	00000002 DMA1_Channel1_IRQHandler
000002be g     F .text	00000016 DLY_ticks
20000000 g       .dalign	00000000 _data_vma
000000e6 g     F .text	00000182 main
00000268  w    F .text	00000002 DMA1_Channel5_IRQHandler
00000000 g       .init	00000000 _sinit
00000268  w    F .text	00000002 DMA1_Channel3_IRQHandler
00000268  w    F .text	00000002 TIM1_UP_IRQHandler
00000268  w    F .text	00000002 WWDG_IRQHandler
00000268  w    F .text	00000002 TIM2_IRQHandler
20000800 g       .bss	00000000 _eusrstack
0000009c g     F .text	0000000a .hidden __riscv_save_2
00000268  w    F .text	00000002 SW_Handler
00000268  w    F .text	00000002 TIM1_BRK_IRQHandler
20000000 g       .data	00000000 _edata
0000026a g     F .text	00000030 CLK_init_HSI_PLL
0000034c g       .dlalign	00000000 _data_lma
00000268  w    F .text	00000002 DMA1_Channel2_IRQHandler
0000009c g     F .text	0000000a .hidden __riscv_save_0
00000268  w    F .text	00000002 FLASH_IRQHandler
00000004 g     O .init	00000098 vectors
00000268  w    F .text	00000002 USART1_IRQHandler
00000268  w    F .text	00000002 I2C1_ER_IRQHandler
000000a6 g     F .text	0000000a .hidden __riscv_restore_1



Disassembly of section .init:

00000000 <jump_reset>:
   0:	2d40006f          	j	2d4 <reset_handler>

00000004 <vectors>:
   4:	00000000 00000268 00000268 00000000     ....h...h.......
	...
  30:	000000b0 00000000 00000268 00000000     ........h.......
  40:	00000268 00000268 00000268 00000268     h...h...h...h...
  50:	00000268 00000268 00000268 00000268     h...h...h...h...
  60:	00000268 00000268 00000268 00000268     h...h...h...h...
  70:	00000268 00000268 00000268 00000268     h...h...h...h...
  80:	00000268 00000268 00000268 00000268     h...h...h...h...
  90:	00000268 00000268 00000268              h...h...h...

Disassembly of section .text:

0000009c <__riscv_save_0>:
  9c:	1151                	addi	sp,sp,-12
  9e:	c026                	sw	s1,0(sp)
  a0:	c222                	sw	s0,4(sp)
  a2:	c406                	sw	ra,8(sp)
  a4:	8282                	jr	t0

000000a6 <__riscv_restore_0>:
  a6:	4482                	lw	s1,0(sp)
  a8:	4412                	lw	s0,4(sp)
  aa:	40a2                	lw	ra,8(sp)
  ac:	0131                	addi	sp,sp,12
  ae:	8082                	ret

000000b0 <SysTick_Handler>:
  b0:	1151                	addi	sp,sp,-12
  b2:	c03e                	sw	a5,0(sp)
  b4:	200007b7          	lui	a5,0x20000
  b8:	00078793          	mv	a5,a5
  bc:	c23a                	sw	a4,4(sp)
  be:	4398                	lw	a4,0(a5)
  c0:	c436                	sw	a3,8(sp)
  c2:	66b1                	lui	a3,0xc
  c4:	0705                	addi	a4,a4,1
  c6:	c398                	sw	a4,0(a5)
  c8:	e000f7b7          	lui	a5,0xe000f
  cc:	4b98                	lw	a4,16(a5)
  ce:	b8068693          	addi	a3,a3,-1152 # bb80 <_data_lma+0xb834>
  d2:	9736                	add	a4,a4,a3
  d4:	cb98                	sw	a4,16(a5)
  d6:	0007a223          	sw	zero,4(a5) # e000f004 <__global_pointer$+0xc000e804>
  da:	46a2                	lw	a3,8(sp)
  dc:	4712                	lw	a4,4(sp)
  de:	4782                	lw	a5,0(sp)
  e0:	0131                	addi	sp,sp,12
  e2:	30200073          	mret

000000e6 <main>:
  e6:	fb7ff2ef          	jal	t0,9c <__riscv_save_0>
  ea:	e000f7b7          	lui	a5,0xe000f
  ee:	4715                	li	a4,5
  f0:	c398                	sw	a4,0(a5)
  f2:	40021737          	lui	a4,0x40021
  f6:	431c                	lw	a5,0(a4)
  f8:	72fd                	lui	t0,0xfffff
  fa:	0ff28293          	addi	t0,t0,255 # fffff0ff <__global_pointer$+0xdfffe8ff>
  fe:	0017e793          	ori	a5,a5,1
 102:	c31c                	sw	a5,0(a4)
 104:	400117b7          	lui	a5,0x40011
 108:	8007a703          	lw	a4,-2048(a5) # 40010800 <__global_pointer$+0x20010000>
 10c:	f10006b7          	lui	a3,0xf1000
 110:	16fd                	addi	a3,a3,-1
 112:	00577733          	and	a4,a4,t0
 116:	10076713          	ori	a4,a4,256
 11a:	80e7a023          	sw	a4,-2048(a5)
 11e:	4007a703          	lw	a4,1024(a5)
 122:	4311                	li	t1,4
 124:	04000593          	li	a1,64
 128:	8f75                	and	a4,a4,a3
 12a:	010006b7          	lui	a3,0x1000
 12e:	8f55                	or	a4,a4,a3
 130:	40e7a023          	sw	a4,1024(a5)
 134:	4394                	lw	a3,0(a5)
 136:	fff10737          	lui	a4,0xfff10
 13a:	177d                	addi	a4,a4,-1
 13c:	8ef9                	and	a3,a3,a4
 13e:	6741                	lui	a4,0x10
 140:	8ed9                	or	a3,a3,a4
 142:	c394                	sw	a3,0(a5)
 144:	8067a823          	sw	t1,-2032(a5)
 148:	40b7a823          	sw	a1,1040(a5)
 14c:	4741                	li	a4,16
 14e:	cb98                	sw	a4,16(a5)
 150:	4394                	lw	a3,0(a5)
 152:	4709                	li	a4,2
 154:	f0f6f693          	andi	a3,a3,-241
 158:	0806e693          	ori	a3,a3,128
 15c:	c394                	sw	a3,0(a5)
 15e:	cb98                	sw	a4,16(a5)
 160:	4398                	lw	a4,0(a5)
 162:	ff1006b7          	lui	a3,0xff100
 166:	16fd                	addi	a3,a3,-1
 168:	00577733          	and	a4,a4,t0
 16c:	40076713          	ori	a4,a4,1024
 170:	c398                	sw	a4,0(a5)
 172:	4007a703          	lw	a4,1024(a5)
 176:	40078613          	addi	a2,a5,1024
 17a:	80078513          	addi	a0,a5,-2048
 17e:	8f75                	and	a4,a4,a3
 180:	008006b7          	lui	a3,0x800
 184:	8f55                	or	a4,a4,a3
 186:	40e7a023          	sw	a4,1024(a5)
 18a:	80418713          	addi	a4,gp,-2044 # 20000004 <g_status>
 18e:	02000793          	li	a5,32
 192:	ca1c                	sw	a5,16(a2)
 194:	231c                	lbu	a5,0(a4)
 196:	00652a23          	sw	t1,20(a0)
 19a:	ca4c                	sw	a1,20(a2)
 19c:	9bb1                	andi	a5,a5,-20
 19e:	0027e793          	ori	a5,a5,2
 1a2:	a31c                	sb	a5,0(a4)
 1a4:	80418413          	addi	s0,gp,-2044 # 20000004 <g_status>
 1a8:	400114b7          	lui	s1,0x40011
 1ac:	449c                	lw	a5,8(s1)
 1ae:	8385                	srli	a5,a5,0x1
 1b0:	8b85                	andi	a5,a5,1
 1b2:	cbc9                	beqz	a5,244 <main+0x15e>
 1b4:	47c1                	li	a5,16
 1b6:	c89c                	sw	a5,16(s1)
 1b8:	201c                	lbu	a5,0(s0)
 1ba:	0047d713          	srli	a4,a5,0x4
 1be:	8b05                	andi	a4,a4,1
 1c0:	e701                	bnez	a4,1c8 <main+0xe2>
 1c2:	0107e793          	ori	a5,a5,16
 1c6:	a01c                	sb	a5,0(s0)
 1c8:	449c                	lw	a5,8(s1)
 1ca:	8389                	srli	a5,a5,0x2
 1cc:	0017f713          	andi	a4,a5,1
 1d0:	201c                	lbu	a5,0(s0)
 1d2:	00271693          	slli	a3,a4,0x2
 1d6:	0fa7f793          	andi	a5,a5,250
 1da:	8fd9                	or	a5,a5,a4
 1dc:	8fd5                	or	a5,a5,a3
 1de:	ff77f713          	andi	a4,a5,-9
 1e2:	a018                	sb	a4,0(s0)
 1e4:	4084a703          	lw	a4,1032(s1) # 40011408 <__global_pointer$+0x20010c08>
 1e8:	02077713          	andi	a4,a4,32
 1ec:	c709                	beqz	a4,1f6 <main+0x110>
 1ee:	9b99                	andi	a5,a5,-26
 1f0:	0107e793          	ori	a5,a5,16
 1f4:	a01c                	sb	a5,0(s0)
 1f6:	201c                	lbu	a5,0(s0)
 1f8:	8b85                	andi	a5,a5,1
 1fa:	cb99                	beqz	a5,210 <main+0x12a>
 1fc:	201c                	lbu	a5,0(s0)
 1fe:	4711                	li	a4,4
 200:	80e4aa23          	sw	a4,-2028(s1)
 204:	04000713          	li	a4,64
 208:	40e4aa23          	sw	a4,1044(s1)
 20c:	9bbd                	andi	a5,a5,-17
 20e:	a01c                	sb	a5,0(s0)
 210:	201c                	lbu	a5,0(s0)
 212:	0107f713          	andi	a4,a5,16
 216:	db59                	beqz	a4,1ac <main+0xc6>
 218:	0017f713          	andi	a4,a5,1
 21c:	fb41                	bnez	a4,1ac <main+0xc6>
 21e:	8b89                	andi	a5,a5,2
 220:	80048713          	addi	a4,s1,-2048
 224:	c39d                	beqz	a5,24a <main+0x164>
 226:	4791                	li	a5,4
 228:	cb1c                	sw	a5,16(a4)
 22a:	201c                	lbu	a5,0(s0)
 22c:	04000713          	li	a4,64
 230:	40e4a823          	sw	a4,1040(s1)
 234:	9bf5                	andi	a5,a5,-3
 236:	02dc7537          	lui	a0,0x2dc7
 23a:	a01c                	sb	a5,0(s0)
 23c:	c0050513          	addi	a0,a0,-1024 # 2dc6c00 <_data_lma+0x2dc68b4>
 240:	28bd                	jal	2be <DLY_ticks>
 242:	b7ad                	j	1ac <main+0xc6>
 244:	47c1                	li	a5,16
 246:	c8dc                	sw	a5,20(s1)
 248:	b741                	j	1c8 <main+0xe2>
 24a:	4791                	li	a5,4
 24c:	cb5c                	sw	a5,20(a4)
 24e:	201c                	lbu	a5,0(s0)
 250:	04000713          	li	a4,64
 254:	40e4aa23          	sw	a4,1044(s1)
 258:	0027e793          	ori	a5,a5,2
 25c:	016e3537          	lui	a0,0x16e3
 260:	a01c                	sb	a5,0(s0)
 262:	60050513          	addi	a0,a0,1536 # 16e3600 <_data_lma+0x16e32b4>
 266:	bfe9                	j	240 <main+0x15a>

00000268 <default_handler>:
 268:	a001                	j	268 <default_handler>

0000026a <CLK_init_HSI_PLL>:
 26a:	010007b7          	lui	a5,0x1000
 26e:	08178793          	addi	a5,a5,129 # 1000081 <_data_lma+0xfffd35>
 272:	40021737          	lui	a4,0x40021
 276:	c31c                	sw	a5,0(a4)
 278:	400217b7          	lui	a5,0x40021
 27c:	4398                	lw	a4,0(a5)
 27e:	00671693          	slli	a3,a4,0x6
 282:	fe06dde3          	bgez	a3,27c <CLK_init_HSI_PLL+0x12>
 286:	4709                	li	a4,2
 288:	c3d8                	sw	a4,4(a5)
 28a:	400216b7          	lui	a3,0x40021
 28e:	4721                	li	a4,8
 290:	42dc                	lw	a5,4(a3)
 292:	8bb1                	andi	a5,a5,12
 294:	fee79ee3          	bne	a5,a4,290 <CLK_init_HSI_PLL+0x26>
 298:	8082                	ret

0000029a <SYS_init>:
 29a:	e03ff2ef          	jal	t0,9c <__riscv_save_0>
 29e:	400227b7          	lui	a5,0x40022
 2a2:	4705                	li	a4,1
 2a4:	c398                	sw	a4,0(a5)
 2a6:	37d1                	jal	26a <CLK_init_HSI_PLL>
 2a8:	e000f7b7          	lui	a5,0xe000f
 2ac:	4715                	li	a4,5
 2ae:	c398                	sw	a4,0(a5)
 2b0:	40021737          	lui	a4,0x40021
 2b4:	4f1c                	lw	a5,24(a4)
 2b6:	0347e793          	ori	a5,a5,52
 2ba:	cf1c                	sw	a5,24(a4)
 2bc:	b3ed                	j	a6 <__riscv_restore_0>

000002be <DLY_ticks>:
 2be:	e000f7b7          	lui	a5,0xe000f
 2c2:	479c                	lw	a5,8(a5)
 2c4:	e000f737          	lui	a4,0xe000f
 2c8:	953e                	add	a0,a0,a5
 2ca:	471c                	lw	a5,8(a4)
 2cc:	8f89                	sub	a5,a5,a0
 2ce:	fe07cee3          	bltz	a5,2ca <DLY_ticks+0xc>
 2d2:	8082                	ret

000002d4 <reset_handler>:
 2d4:	000007b7          	lui	a5,0x0
 2d8:	0e678793          	addi	a5,a5,230 # e6 <main>
 2dc:	20000197          	auipc	gp,0x20000
 2e0:	52418193          	addi	gp,gp,1316 # 20000800 <__global_pointer$>
 2e4:	00018113          	mv	sp,gp
 2e8:	08800513          	li	a0,136
 2ec:	30051073          	csrw	mstatus,a0
 2f0:	458d                	li	a1,3
 2f2:	80459073          	csrw	0x804,a1
 2f6:	00000517          	auipc	a0,0x0
 2fa:	d0a50513          	addi	a0,a0,-758 # 0 <jump_reset>
 2fe:	8d4d                	or	a0,a0,a1
 300:	30551073          	csrw	mtvec,a0
 304:	34179073          	csrw	mepc,a5
 308:	200007b7          	lui	a5,0x20000
 30c:	200006b7          	lui	a3,0x20000
 310:	00078793          	mv	a5,a5
 314:	34c00713          	li	a4,844
 318:	00068693          	mv	a3,a3
 31c:	00d7ed63          	bltu	a5,a3,336 <reset_handler+0x62>
 320:	200007b7          	lui	a5,0x20000
 324:	00078793          	mv	a5,a5
 328:	80818713          	addi	a4,gp,-2040 # 20000008 <_ebss>
 32c:	00e7ec63          	bltu	a5,a4,344 <reset_handler+0x70>
 330:	37ad                	jal	29a <SYS_init>
 332:	30200073          	mret
 336:	0711                	addi	a4,a4,4
 338:	ffc72603          	lw	a2,-4(a4) # e000effc <__global_pointer$+0xc000e7fc>
 33c:	0791                	addi	a5,a5,4
 33e:	fec7ae23          	sw	a2,-4(a5) # 1ffffffc <_data_lma+0x1ffffcb0>
 342:	bfe9                	j	31c <reset_handler+0x48>
 344:	0791                	addi	a5,a5,4
 346:	fe07ae23          	sw	zero,-4(a5)
 34a:	b7cd                	j	32c <reset_handler+0x58>
